(dp1
S'files'
p2
(dp3
S'code_HackerRankSetup_hackerranksetup_repository'
p4
(dp5
S'index'
p6
(dp7
S'html_filename'
p8
S'code_HackerRankSetup_hackerranksetup_repository.html'
p9
sS'name'
p10
S'code/HackerRankSetup/hackerranksetup/repository'
p11
sS'nums'
p12
ccopy_reg
_reconstructor
p13
(ccoverage.results
Numbers
p14
c__builtin__
object
p15
NtRp16
(dp17
S'n_files'
p18
I1
sS'n_branches'
p19
I0
sS'n_statements'
p20
I42
sS'n_excluded'
p21
I0
sS'n_partial_branches'
p22
I0
sS'n_missing'
p23
I0
sS'n_missing_branches'
p24
I0
sbssS'hash'
p25
S'_\xac\xa9\xf6\x8f\x9f\x19\xff\x88&E\xa5r\xf5\xe4z'
p26
ssS'code_HackerRankSetup_hackerranksetup_readme'
p27
(dp28
g6
(dp29
g8
S'code_HackerRankSetup_hackerranksetup_readme.html'
p30
sg10
S'code/HackerRankSetup/hackerranksetup/readme'
p31
sg12
g13
(g14
g15
NtRp32
(dp33
g18
I1
sg19
I0
sg20
I55
sg21
I0
sg22
I0
sg23
I0
sg24
I0
sbssg25
S'``,2\x12\x97\x90\xc5\xb4\xcd\xe6\xb3\xfaOa_'
p34
ssS'code_HackerRankSetup_hackerranksetup_frontpage'
p35
(dp36
g6
(dp37
g8
S'code_HackerRankSetup_hackerranksetup_frontpage.html'
p38
sg10
S'code/HackerRankSetup/hackerranksetup/frontpage'
p39
sg12
g13
(g14
g15
NtRp40
(dp41
g18
I1
sg19
I0
sg20
I35
sg21
I0
sg22
I0
sg23
I25
sg24
I0
sbssg25
S'\x17H\x9e\xc9En\x9d\x88\xa5\x88"\x8a\xac\xa1a\xe7'
p42
ssS'code_HackerRankSetup_hackerranksetup___init__'
p43
(dp44
g6
(dp45
g8
S'code_HackerRankSetup_hackerranksetup___init__.html'
p46
sg10
S'code/HackerRankSetup/hackerranksetup/__init__'
p47
sg12
g13
(g14
g15
NtRp48
(dp49
g18
I1
sg19
I0
sg20
I16
sg21
I0
sg22
I0
sg23
I0
sg24
I0
sbssg25
S'\xe2\x8a\x07\xa5\xc3\xb8pn\x96f\x80\xc0\xc8d\x8b4'
p50
ssS'code_HackerRankSetup_hackerranksetup_challenge'
p51
(dp52
g6
(dp53
g8
S'code_HackerRankSetup_hackerranksetup_challenge.html'
p54
sg10
S'code/HackerRankSetup/hackerranksetup/challenge'
p55
sg12
g13
(g14
g15
NtRp56
(dp57
g18
I1
sg19
I0
sg20
I51
sg21
I0
sg22
I0
sg23
I0
sg24
I0
sbssg25
S'\xc9\xef\xb6\xa0\xb3)K\xb1jM\xc9%\xa0\xac}\xd8'
p58
ssS'code_HackerRankSetup_hackerranksetup_utilities'
p59
(dp60
g6
(dp61
g8
S'code_HackerRankSetup_hackerranksetup_utilities.html'
p62
sg10
S'code/HackerRankSetup/hackerranksetup/utilities'
p63
sg12
g13
(g14
g15
NtRp64
(dp65
g18
I1
sg19
I0
sg20
I22
sg21
I0
sg22
I0
sg23
I15
sg24
I0
sbssg25
S'\xd8\x84y^\xae\xfb\x94\xe9\x94\xb2\xb8-I\x82\xb4\x1b'
p66
ssS'code_HackerRankSetup_hackerranksetup_teximage'
p67
(dp68
g6
(dp69
g8
S'code_HackerRankSetup_hackerranksetup_teximage.html'
p70
sg10
S'code/HackerRankSetup/hackerranksetup/teximage'
p71
sg12
g13
(g14
g15
NtRp72
(dp73
g18
I1
sg19
I0
sg20
I21
sg21
I0
sg22
I0
sg23
I0
sg24
I0
sbssg25
S'\x93\x9e\xea\xbc\x01\xd8\xef1\x01y\xd3\x02:h\xdbs'
p74
sssS'version'
p75
S'3.7.1'
p76
sS'settings'
p77
S'\x18\x9f\xb8\x8euzfk\x14Xj\xef\x0f\xfb\x9d\xe8'
p78
sS'format'
p79
I1
s.